target datalayout = "e-m:e-p270:32:32-p271:32:32-p272:64:64-i64:64-i128:128-f80:128-n8:16:32:64-S128"
target triple = "x86_64-pc-linux-gnu"

%struct.AVRational = type { i32, i32 }
%struct.SyncQueue = type { i32, ptr, i32, i32, i32, i64, ptr, i32, i32, i64 }
%struct.SyncQueueStream = type { ptr, %struct.AVRational, i64, i64, i32, i32, i64, i64, i64, i32 }

@.str.8 = private unnamed_addr constant [27 x i8] c"sq: finish %u; head ts %s\0A\00", align 1
@.str.9 = private unnamed_addr constant [37 x i8] c"sq: finish secondary %u; head ts %s\0A\00", align 1
@.str.10 = private unnamed_addr constant [18 x i8] c"sq: finish queue\0A\00", align 1

; Function Attrs: inlinehint nounwind uwtable
define internal ptr @av_ts_make_time_string(ptr noundef %0, i64 noundef %1, ptr noundef %2) #5 {
  %4 = alloca ptr, align 8
  %5 = alloca i64, align 8
  %6 = alloca ptr, align 8
  store ptr %0, ptr %4, align 8, !tbaa !60
  store i64 %1, ptr %5, align 8, !tbaa !35
  store ptr %2, ptr %6, align 8, !tbaa !61
  %7 = load ptr, ptr %4, align 8, !tbaa !60
  %8 = load i64, ptr %5, align 8, !tbaa !35
  %9 = load ptr, ptr %6, align 8, !tbaa !61
  %10 = load i64, ptr %9, align 4
  %11 = call ptr @av_ts_make_time_string2(ptr noundef %7, i64 noundef %8, i64 %10)
  ret ptr %11
}

; Function Attrs: nounwind uwtable
define internal void @finish_stream(ptr noundef %0, i32 noundef %1) #0 {
  %3 = alloca ptr, align 8
  %4 = alloca i32, align 4
  %5 = alloca ptr, align 8
  %6 = alloca [32 x i8], align 1
  %7 = alloca i32, align 4
  %8 = alloca ptr, align 8
  %9 = alloca [32 x i8], align 1
  %10 = alloca i32, align 4
  %11 = alloca i32, align 4
  store ptr %0, ptr %3, align 8, !tbaa !4
  store i32 %1, ptr %4, align 4, !tbaa !9
  call void @llvm.lifetime.start.p0(i64 8, ptr %5) #8
  %12 = load ptr, ptr %3, align 8, !tbaa !4
  %13 = getelementptr inbounds nuw %struct.SyncQueue, ptr %12, i32 0, i32 6
  %14 = load ptr, ptr %13, align 8, !tbaa !15
  %15 = load i32, ptr %4, align 4, !tbaa !9
  %16 = zext i32 %15 to i64
  %17 = getelementptr inbounds nuw %struct.SyncQueueStream, ptr %14, i64 %16
  store ptr %17, ptr %5, align 8, !tbaa !16
  %18 = load ptr, ptr %5, align 8, !tbaa !16
  %19 = getelementptr inbounds nuw %struct.SyncQueueStream, ptr %18, i32 0, i32 5
  %20 = load i32, ptr %19, align 4, !tbaa !18
  %21 = icmp ne i32 %20, 0
  br i1 %21, label %34, label %22

22:                                               ; preds = %2
  %23 = load ptr, ptr %3, align 8, !tbaa !4
  %24 = getelementptr inbounds nuw %struct.SyncQueue, ptr %23, i32 0, i32 1
  %25 = load ptr, ptr %24, align 8, !tbaa !17
  %26 = load i32, ptr %4, align 4, !tbaa !9
  call void @llvm.memset.p0.i64(ptr align 1 %6, i8 0, i64 32, i1 false)
  %27 = getelementptr inbounds [32 x i8], ptr %6, i64 0, i64 0
  %28 = load ptr, ptr %5, align 8, !tbaa !16
  %29 = getelementptr inbounds nuw %struct.SyncQueueStream, ptr %28, i32 0, i32 3
  %30 = load i64, ptr %29, align 8, !tbaa !43
  %31 = load ptr, ptr %5, align 8, !tbaa !16
  %32 = getelementptr inbounds nuw %struct.SyncQueueStream, ptr %31, i32 0, i32 1
  %33 = call ptr @av_ts_make_time_string(ptr noundef %27, i64 noundef %30, ptr noundef %32)
  call void (ptr, i32, ptr, ...) @av_log(ptr noundef %25, i32 noundef 48, ptr noundef @.str.8, i32 noundef %26, ptr noundef %33)
  br label %34

34:                                               ; preds = %22, %2
  %35 = load ptr, ptr %5, align 8, !tbaa !16
  %36 = getelementptr inbounds nuw %struct.SyncQueueStream, ptr %35, i32 0, i32 5
  store i32 1, ptr %36, align 4, !tbaa !18
  %37 = load ptr, ptr %5, align 8, !tbaa !16
  %38 = getelementptr inbounds nuw %struct.SyncQueueStream, ptr %37, i32 0, i32 4
  %39 = load i32, ptr %38, align 8, !tbaa !44
  %40 = icmp ne i32 %39, 0
  br i1 %40, label %41, label %155

41:                                               ; preds = %34
  %42 = load ptr, ptr %5, align 8, !tbaa !16
  %43 = getelementptr inbounds nuw %struct.SyncQueueStream, ptr %42, i32 0, i32 3
  %44 = load i64, ptr %43, align 8, !tbaa !43
  %45 = icmp ne i64 %44, -9223372036854775808
  br i1 %45, label %46, label %155

46:                                               ; preds = %41
  %47 = load ptr, ptr %3, align 8, !tbaa !4
  %48 = getelementptr inbounds nuw %struct.SyncQueue, ptr %47, i32 0, i32 4
  %49 = load i32, ptr %48, align 8, !tbaa !45
  %50 = icmp slt i32 %49, 0
  br i1 %50, label %80, label %51

51:                                               ; preds = %46
  %52 = load ptr, ptr %5, align 8, !tbaa !16
  %53 = getelementptr inbounds nuw %struct.SyncQueueStream, ptr %52, i32 0, i32 3
  %54 = load i64, ptr %53, align 8, !tbaa !43
  %55 = load ptr, ptr %5, align 8, !tbaa !16
  %56 = getelementptr inbounds nuw %struct.SyncQueueStream, ptr %55, i32 0, i32 1
  %57 = load ptr, ptr %3, align 8, !tbaa !4
  %58 = getelementptr inbounds nuw %struct.SyncQueue, ptr %57, i32 0, i32 6
  %59 = load ptr, ptr %58, align 8, !tbaa !15
  %60 = load ptr, ptr %3, align 8, !tbaa !4
  %61 = getelementptr inbounds nuw %struct.SyncQueue, ptr %60, i32 0, i32 4
  %62 = load i32, ptr %61, align 8, !tbaa !45
  %63 = sext i32 %62 to i64
  %64 = getelementptr inbounds %struct.SyncQueueStream, ptr %59, i64 %63
  %65 = getelementptr inbounds nuw %struct.SyncQueueStream, ptr %64, i32 0, i32 3
  %66 = load i64, ptr %65, align 8, !tbaa !43
  %67 = load ptr, ptr %3, align 8, !tbaa !4
  %68 = getelementptr inbounds nuw %struct.SyncQueue, ptr %67, i32 0, i32 6
  %69 = load ptr, ptr %68, align 8, !tbaa !15
  %70 = load ptr, ptr %3, align 8, !tbaa !4
  %71 = getelementptr inbounds nuw %struct.SyncQueue, ptr %70, i32 0, i32 4
  %72 = load i32, ptr %71, align 8, !tbaa !45
  %73 = sext i32 %72 to i64
  %74 = getelementptr inbounds %struct.SyncQueueStream, ptr %69, i64 %73
  %75 = getelementptr inbounds nuw %struct.SyncQueueStream, ptr %74, i32 0, i32 1
  %76 = load i64, ptr %56, align 8
  %77 = load i64, ptr %75, align 8
  %78 = call i32 @av_compare_ts(i64 noundef %54, i64 %76, i64 noundef %66, i64 %77)
  %79 = icmp slt i32 %78, 0
  br i1 %79, label %80, label %84

80:                                               ; preds = %51, %46
  %81 = load i32, ptr %4, align 4, !tbaa !9
  %82 = load ptr, ptr %3, align 8, !tbaa !4
  %83 = getelementptr inbounds nuw %struct.SyncQueue, ptr %82, i32 0, i32 4
  store i32 %81, ptr %83, align 8, !tbaa !45
  br label %84

84:                                               ; preds = %80, %51
  %85 = load ptr, ptr %3, align 8, !tbaa !4
  %86 = getelementptr inbounds nuw %struct.SyncQueue, ptr %85, i32 0, i32 6
  %87 = load ptr, ptr %86, align 8, !tbaa !15
  %88 = load ptr, ptr %3, align 8, !tbaa !4
  %89 = getelementptr inbounds nuw %struct.SyncQueue, ptr %88, i32 0, i32 4
  %90 = load i32, ptr %89, align 8, !tbaa !45
  %91 = sext i32 %90 to i64
  %92 = getelementptr inbounds %struct.SyncQueueStream, ptr %87, i64 %91
  store ptr %92, ptr %5, align 8, !tbaa !16
  call void @llvm.lifetime.start.p0(i64 4, ptr %7) #8
  store i32 0, ptr %7, align 4, !tbaa !9
  br label %93

93:                                               ; preds = %151, %84
  %94 = load i32, ptr %7, align 4, !tbaa !9
  %95 = load ptr, ptr %3, align 8, !tbaa !4
  %96 = getelementptr inbounds nuw %struct.SyncQueue, ptr %95, i32 0, i32 7
  %97 = load i32, ptr %96, align 8, !tbaa !11
  %98 = icmp ult i32 %94, %97
  br i1 %98, label %100, label %99

99:                                               ; preds = %93
  call void @llvm.lifetime.end.p0(i64 4, ptr %7) #8
  br label %154

100:                                              ; preds = %93
  call void @llvm.lifetime.start.p0(i64 8, ptr %8) #8
  %101 = load ptr, ptr %3, align 8, !tbaa !4
  %102 = getelementptr inbounds nuw %struct.SyncQueue, ptr %101, i32 0, i32 6
  %103 = load ptr, ptr %102, align 8, !tbaa !15
  %104 = load i32, ptr %7, align 4, !tbaa !9
  %105 = zext i32 %104 to i64
  %106 = getelementptr inbounds nuw %struct.SyncQueueStream, ptr %103, i64 %105
  store ptr %106, ptr %8, align 8, !tbaa !16
  %107 = load ptr, ptr %5, align 8, !tbaa !16
  %108 = load ptr, ptr %8, align 8, !tbaa !16
  %109 = icmp ne ptr %107, %108
  br i1 %109, label %110, label %150

110:                                              ; preds = %100
  %111 = load ptr, ptr %8, align 8, !tbaa !16
  %112 = getelementptr inbounds nuw %struct.SyncQueueStream, ptr %111, i32 0, i32 3
  %113 = load i64, ptr %112, align 8, !tbaa !43
  %114 = icmp ne i64 %113, -9223372036854775808
  br i1 %114, label %115, label %150

115:                                              ; preds = %110
  %116 = load ptr, ptr %5, align 8, !tbaa !16
  %117 = getelementptr inbounds nuw %struct.SyncQueueStream, ptr %116, i32 0, i32 3
  %118 = load i64, ptr %117, align 8, !tbaa !43
  %119 = load ptr, ptr %5, align 8, !tbaa !16
  %120 = getelementptr inbounds nuw %struct.SyncQueueStream, ptr %119, i32 0, i32 1
  %121 = load ptr, ptr %8, align 8, !tbaa !16
  %122 = getelementptr inbounds nuw %struct.SyncQueueStream, ptr %121, i32 0, i32 3
  %123 = load i64, ptr %122, align 8, !tbaa !43
  %124 = load ptr, ptr %8, align 8, !tbaa !16
  %125 = getelementptr inbounds nuw %struct.SyncQueueStream, ptr %124, i32 0, i32 1
  %126 = load i64, ptr %120, align 8
  %127 = load i64, ptr %125, align 8
  %128 = call i32 @av_compare_ts(i64 noundef %118, i64 %126, i64 noundef %123, i64 %127)
  %129 = icmp sle i32 %128, 0
  br i1 %129, label %130, label %150

130:                                              ; preds = %115
  %131 = load ptr, ptr %8, align 8, !tbaa !16
  %132 = getelementptr inbounds nuw %struct.SyncQueueStream, ptr %131, i32 0, i32 5
  %133 = load i32, ptr %132, align 4, !tbaa !18
  %134 = icmp ne i32 %133, 0
  br i1 %134, label %147, label %135

135:                                              ; preds = %130
  %136 = load ptr, ptr %3, align 8, !tbaa !4
  %137 = getelementptr inbounds nuw %struct.SyncQueue, ptr %136, i32 0, i32 1
  %138 = load ptr, ptr %137, align 8, !tbaa !17
  %139 = load i32, ptr %7, align 4, !tbaa !9
  call void @llvm.memset.p0.i64(ptr align 1 %9, i8 0, i64 32, i1 false)
  %140 = getelementptr inbounds [32 x i8], ptr %9, i64 0, i64 0
  %141 = load ptr, ptr %8, align 8, !tbaa !16
  %142 = getelementptr inbounds nuw %struct.SyncQueueStream, ptr %141, i32 0, i32 3
  %143 = load i64, ptr %142, align 8, !tbaa !43
  %144 = load ptr, ptr %8, align 8, !tbaa !16
  %145 = getelementptr inbounds nuw %struct.SyncQueueStream, ptr %144, i32 0, i32 1
  %146 = call ptr @av_ts_make_time_string(ptr noundef %140, i64 noundef %143, ptr noundef %145)
  call void (ptr, i32, ptr, ...) @av_log(ptr noundef %138, i32 noundef 48, ptr noundef @.str.9, i32 noundef %139, ptr noundef %146)
  br label %147

147:                                              ; preds = %135, %130
  %148 = load ptr, ptr %8, align 8, !tbaa !16
  %149 = getelementptr inbounds nuw %struct.SyncQueueStream, ptr %148, i32 0, i32 5
  store i32 1, ptr %149, align 4, !tbaa !18
  br label %150

150:                                              ; preds = %147, %115, %110, %100
  call void @llvm.lifetime.end.p0(i64 8, ptr %8) #8
  br label %151

151:                                              ; preds = %150
  %152 = load i32, ptr %7, align 4, !tbaa !9
  %153 = add i32 %152, 1
  store i32 %153, ptr %7, align 4, !tbaa !9
  br label %93, !llvm.loop !46

154:                                              ; preds = %99
  br label %155

155:                                              ; preds = %154, %41, %34
  call void @llvm.lifetime.start.p0(i64 4, ptr %10) #8
  store i32 0, ptr %10, align 4, !tbaa !9
  br label %156

156:                                              ; preds = %175, %155
  %157 = load i32, ptr %10, align 4, !tbaa !9
  %158 = load ptr, ptr %3, align 8, !tbaa !4
  %159 = getelementptr inbounds nuw %struct.SyncQueue, ptr %158, i32 0, i32 7
  %160 = load i32, ptr %159, align 8, !tbaa !11
  %161 = icmp ult i32 %157, %160
  br i1 %161, label %163, label %162

162:                                              ; preds = %156
  store i32 5, ptr %11, align 4
  br label %178

163:                                              ; preds = %156
  %164 = load ptr, ptr %3, align 8, !tbaa !4
  %165 = getelementptr inbounds nuw %struct.SyncQueue, ptr %164, i32 0, i32 6
  %166 = load ptr, ptr %165, align 8, !tbaa !15
  %167 = load i32, ptr %10, align 4, !tbaa !9
  %168 = zext i32 %167 to i64
  %169 = getelementptr inbounds nuw %struct.SyncQueueStream, ptr %166, i64 %168
  %170 = getelementptr inbounds nuw %struct.SyncQueueStream, ptr %169, i32 0, i32 5
  %171 = load i32, ptr %170, align 4, !tbaa !18
  %172 = icmp ne i32 %171, 0
  br i1 %172, label %174, label %173

173:                                              ; preds = %163
  store i32 1, ptr %11, align 4
  br label %178

174:                                              ; preds = %163
  br label %175

175:                                              ; preds = %174
  %176 = load i32, ptr %10, align 4, !tbaa !9
  %177 = add i32 %176, 1
  store i32 %177, ptr %10, align 4, !tbaa !9
  br label %156, !llvm.loop !48

178:                                              ; preds = %173, %162
  call void @llvm.lifetime.end.p0(i64 4, ptr %10) #8
  %179 = load i32, ptr %11, align 4
  switch i32 %179, label %186 [
    i32 5, label %180
  ]

180:                                              ; preds = %178
  %181 = load ptr, ptr %3, align 8, !tbaa !4
  %182 = getelementptr inbounds nuw %struct.SyncQueue, ptr %181, i32 0, i32 2
  store i32 1, ptr %182, align 8, !tbaa !49
  %183 = load ptr, ptr %3, align 8, !tbaa !4
  %184 = getelementptr inbounds nuw %struct.SyncQueue, ptr %183, i32 0, i32 1
  %185 = load ptr, ptr %184, align 8, !tbaa !17
  call void (ptr, i32, ptr, ...) @av_log(ptr noundef %185, i32 noundef 48, ptr noundef @.str.10)
  store i32 0, ptr %11, align 4
  br label %186

186:                                              ; preds = %180, %178
  call void @llvm.lifetime.end.p0(i64 8, ptr %5) #8
  %187 = load i32, ptr %11, align 4
  switch i32 %187, label %189 [
    i32 0, label %188
    i32 1, label %188
  ]

188:                                              ; preds = %186, %186
  ret void

189:                                              ; preds = %186
  unreachable
}