; Function Attrs: nounwind uwtable
define internal fastcc void @finish_stream(ptr noundef captures(none) %0, i32 noundef %1) unnamed_addr #0 {
  %3 = alloca [32 x i8], align 1
  %4 = alloca [32 x i8], align 1
  %5 = getelementptr inbounds nuw i8, ptr %0, i64 40
  %6 = load ptr, ptr %5, align 8, !tbaa !12
  %7 = zext i32 %1 to i64
  %8 = getelementptr inbounds nuw %struct.SyncQueueStream, ptr %6, i64 %7
  %9 = getelementptr inbounds nuw i8, ptr %8, i64 36
  %10 = load i32, ptr %9, align 4, !tbaa !14
  %.not = icmp eq i32 %10, 0
  br i1 %.not, label %11, label %18

11:                                               ; preds = %2
  %12 = getelementptr inbounds nuw i8, ptr %0, i64 8
  %13 = load ptr, ptr %12, align 8, !tbaa !13
  call void @llvm.memset.p0.i64(ptr noundef nonnull align 1 dereferenceable(32) %3, i8 0, i64 32, i1 false)
  %14 = getelementptr inbounds nuw i8, ptr %8, i64 24
  %15 = load i64, ptr %14, align 8, !tbaa !23
  %16 = getelementptr inbounds nuw i8, ptr %8, i64 8
  %.val = load i64, ptr %16, align 4
  %17 = call ptr @av_ts_make_time_string2(ptr noundef nonnull %3, i64 noundef %15, i64 %.val) #7
  call void (ptr, i32, ptr, ...) @av_log(ptr noundef %13, i32 noundef 48, ptr noundef nonnull @.str.8, i32 noundef %1, ptr noundef %17) #7
  br label %18

18:                                               ; preds = %11, %2
  store i32 1, ptr %9, align 4, !tbaa !14
  %19 = getelementptr inbounds nuw i8, ptr %8, i64 32
  %20 = load i32, ptr %19, align 8, !tbaa !41
  %.not53 = icmp eq i32 %20, 0
  br i1 %.not53, label %.loopexit61, label %21

21:                                               ; preds = %18
  %22 = getelementptr inbounds nuw i8, ptr %8, i64 24
  %23 = load i64, ptr %22, align 8, !tbaa !23
  %.not54 = icmp eq i64 %23, -9223372036854775808
  br i1 %.not54, label %.loopexit61, label %24

24:                                               ; preds = %21
  %25 = getelementptr inbounds nuw i8, ptr %0, i64 24
  %26 = load i32, ptr %25, align 8, !tbaa !42
  %27 = icmp slt i32 %26, 0
  br i1 %27, label %40, label %28

28:                                               ; preds = %24
  %29 = getelementptr inbounds nuw i8, ptr %8, i64 8
  %30 = load ptr, ptr %5, align 8, !tbaa !12
  %31 = zext nneg i32 %26 to i64
  %32 = getelementptr inbounds nuw %struct.SyncQueueStream, ptr %30, i64 %31
  %33 = getelementptr inbounds nuw i8, ptr %32, i64 24
  %34 = load i64, ptr %33, align 8, !tbaa !23
  %35 = getelementptr inbounds nuw i8, ptr %32, i64 8
  %36 = load i64, ptr %29, align 8
  %37 = load i64, ptr %35, align 8
  %38 = call i32 @av_compare_ts(i64 noundef %23, i64 %36, i64 noundef %34, i64 %37) #7
  %39 = icmp slt i32 %38, 0
  br i1 %39, label %40, label %._crit_edge

._crit_edge:                                      ; preds = %28
  %.pre = load i32, ptr %25, align 8, !tbaa !42
  br label %41

40:                                               ; preds = %28, %24
  store i32 %1, ptr %25, align 8, !tbaa !42
  br label %41

41:                                               ; preds = %._crit_edge, %40
  %42 = phi i32 [ %.pre, %._crit_edge ], [ %1, %40 ]
  %43 = load ptr, ptr %5, align 8, !tbaa !12
  %44 = sext i32 %42 to i64
  %45 = getelementptr inbounds %struct.SyncQueueStream, ptr %43, i64 %44
  %46 = getelementptr inbounds nuw i8, ptr %0, i64 48
  %47 = load i32, ptr %46, align 8, !tbaa !4
  %.not67 = icmp eq i32 %47, 0
  br i1 %.not67, label %.loopexit61, label %.lr.ph

.lr.ph:                                           ; preds = %41
  %48 = getelementptr inbounds nuw i8, ptr %45, i64 24
  %49 = getelementptr inbounds nuw i8, ptr %45, i64 8
  %50 = getelementptr inbounds nuw i8, ptr %0, i64 8
  br label %51

51:                                               ; preds = %.lr.ph, %73
  %indvars.iv = phi i64 [ 0, %.lr.ph ], [ %indvars.iv.next, %73 ]
  %52 = load ptr, ptr %5, align 8, !tbaa !12
  %53 = getelementptr inbounds nuw %struct.SyncQueueStream, ptr %52, i64 %indvars.iv
  %.not57 = icmp eq ptr %45, %53
  br i1 %.not57, label %73, label %54

54:                                               ; preds = %51
  %55 = getelementptr inbounds nuw i8, ptr %53, i64 24
  %56 = load i64, ptr %55, align 8, !tbaa !23
  %.not58 = icmp eq i64 %56, -9223372036854775808
  br i1 %.not58, label %73, label %57

57:                                               ; preds = %54
  %58 = load i64, ptr %48, align 8, !tbaa !23
  %59 = getelementptr inbounds nuw i8, ptr %53, i64 8
  %60 = load i64, ptr %49, align 8
  %61 = load i64, ptr %59, align 8
  %62 = call i32 @av_compare_ts(i64 noundef %58, i64 %60, i64 noundef %56, i64 %61) #7
  %63 = icmp slt i32 %62, 1
  br i1 %63, label %64, label %73

64:                                               ; preds = %57
  %65 = getelementptr inbounds nuw i8, ptr %53, i64 36
  %66 = load i32, ptr %65, align 4, !tbaa !14
  %.not59 = icmp eq i32 %66, 0
  br i1 %.not59, label %67, label %72

67:                                               ; preds = %64
  %68 = load ptr, ptr %50, align 8, !tbaa !13
  call void @llvm.memset.p0.i64(ptr noundef nonnull align 1 dereferenceable(32) %4, i8 0, i64 32, i1 false)
  %69 = load i64, ptr %55, align 8, !tbaa !23
  %.val60 = load i64, ptr %59, align 4
  %70 = call ptr @av_ts_make_time_string2(ptr noundef nonnull %4, i64 noundef %69, i64 %.val60) #7
  %71 = trunc nuw i64 %indvars.iv to i32
  call void (ptr, i32, ptr, ...) @av_log(ptr noundef %68, i32 noundef 48, ptr noundef nonnull @.str.9, i32 noundef %71, ptr noundef %70) #7
  br label %72

72:                                               ; preds = %67, %64
  store i32 1, ptr %65, align 4, !tbaa !14
  br label %73

73:                                               ; preds = %72, %57, %54, %51
  %indvars.iv.next = add nuw nsw i64 %indvars.iv, 1
  %74 = load i32, ptr %46, align 8, !tbaa !4
  %75 = zext i32 %74 to i64
  %76 = icmp samesign ult i64 %indvars.iv.next, %75
  br i1 %76, label %51, label %.loopexit61, !llvm.loop !43

.loopexit61:                                      ; preds = %73, %41, %21, %18
  %77 = getelementptr inbounds nuw i8, ptr %0, i64 48
  %78 = load i32, ptr %77, align 8, !tbaa !4
  %.not5664.not = icmp eq i32 %78, 0
  br i1 %.not5664.not, label %.critedge, label %.lr.ph66

.lr.ph66:                                         ; preds = %.loopexit61
  %79 = load ptr, ptr %5, align 8, !tbaa !12
  %wide.trip.count = zext i32 %78 to i64
  br label %81

80:                                               ; preds = %81
  %indvars.iv.next70 = add nuw nsw i64 %indvars.iv69, 1
  %exitcond.not = icmp eq i64 %indvars.iv.next70, %wide.trip.count
  br i1 %exitcond.not, label %.critedge, label %81, !llvm.loop !45

81:                                               ; preds = %.lr.ph66, %80
  %indvars.iv69 = phi i64 [ 0, %.lr.ph66 ], [ %indvars.iv.next70, %80 ]
  %82 = getelementptr inbounds nuw %struct.SyncQueueStream, ptr %79, i64 %indvars.iv69, i32 5
  %83 = load i32, ptr %82, align 4, !tbaa !14
  %.not55 = icmp eq i32 %83, 0
  br i1 %.not55, label %.loopexit, label %80

.critedge:                                        ; preds = %80, %.loopexit61
  %84 = getelementptr inbounds nuw i8, ptr %0, i64 16
  store i32 1, ptr %84, align 8, !tbaa !46
  %85 = getelementptr inbounds nuw i8, ptr %0, i64 8
  %86 = load ptr, ptr %85, align 8, !tbaa !13
  call void (ptr, i32, ptr, ...) @av_log(ptr noundef %86, i32 noundef 48, ptr noundef nonnull @.str.10) #7
  br label %.loopexit

.loopexit:                                        ; preds = %81, %.critedge
  ret void
}